target datalayout = "e-m:e-p270:32:32-p271:32:32-p272:64:64-i64:64-i128:128-f80:128-n8:16:32:64-S128"
target triple = "x86_64-pc-linux-gnu"

%struct.asn1_string_st = type { i32, i32, ptr, i64 }

; Function Attrs: nounwind uwtable
define hidden i32 @ASN1_BIT_STRING_get_bit(ptr noundef %0, i32 noundef %1) #0 {
  %3 = alloca i32, align 4
  %4 = alloca ptr, align 8
  %5 = alloca i32, align 4
  %6 = alloca i32, align 4
  %7 = alloca i32, align 4
  %8 = alloca i32, align 4
  store ptr %0, ptr %4, align 8, !tbaa !6
  store i32 %1, ptr %5, align 4, !tbaa !13
  call void @llvm.lifetime.start.p0(i64 4, ptr %6) #7
  call void @llvm.lifetime.start.p0(i64 4, ptr %7) #7
  %9 = load i32, ptr %5, align 4, !tbaa !13
  %10 = sdiv i32 %9, 8
  store i32 %10, ptr %6, align 4, !tbaa !13
  %11 = load i32, ptr %5, align 4, !tbaa !13
  %12 = and i32 %11, 7
  %13 = sub nsw i32 7, %12
  %14 = shl i32 1, %13
  store i32 %14, ptr %7, align 4, !tbaa !13
  %15 = load ptr, ptr %4, align 8, !tbaa !6
  %16 = icmp eq ptr %15, null
  br i1 %16, label %29, label %17

17:                                               ; preds = %2
  %18 = load ptr, ptr %4, align 8, !tbaa !6
  %19 = getelementptr inbounds nuw %struct.asn1_string_st, ptr %18, i32 0, i32 0
  %20 = load i32, ptr %19, align 8, !tbaa !17
  %21 = load i32, ptr %6, align 4, !tbaa !13
  %22 = add nsw i32 %21, 1
  %23 = icmp slt i32 %20, %22
  br i1 %23, label %29, label %24

24:                                               ; preds = %17
  %25 = load ptr, ptr %4, align 8, !tbaa !6
  %26 = getelementptr inbounds nuw %struct.asn1_string_st, ptr %25, i32 0, i32 2
  %27 = load ptr, ptr %26, align 8, !tbaa !21
  %28 = icmp eq ptr %27, null
  br i1 %28, label %29, label %30

29:                                               ; preds = %24, %17, %2
  store i32 0, ptr %3, align 4
  store i32 1, ptr %8, align 4
  br label %43

30:                                               ; preds = %24
  %31 = load ptr, ptr %4, align 8, !tbaa !6
  %32 = getelementptr inbounds nuw %struct.asn1_string_st, ptr %31, i32 0, i32 2
  %33 = load ptr, ptr %32, align 8, !tbaa !21
  %34 = load i32, ptr %6, align 4, !tbaa !13
  %35 = sext i32 %34 to i64
  %36 = getelementptr inbounds i8, ptr %33, i64 %35
  %37 = load i8, ptr %36, align 1, !tbaa !22
  %38 = zext i8 %37 to i32
  %39 = load i32, ptr %7, align 4, !tbaa !13
  %40 = and i32 %38, %39
  %41 = icmp ne i32 %40, 0
  %42 = zext i1 %41 to i32
  store i32 %42, ptr %3, align 4
  store i32 1, ptr %8, align 4
  br label %43

43:                                               ; preds = %30, %29
  call void @llvm.lifetime.end.p0(i64 4, ptr %7) #7
  call void @llvm.lifetime.end.p0(i64 4, ptr %6) #7
  %44 = load i32, ptr %3, align 4
  ret i32 %44
}