; Function Attrs: mustprogress nofree norecurse nosync nounwind willreturn memory(read, inaccessiblemem: none) uwtable
define hidden range(i32 0, 2) i32 @ASN1_BIT_STRING_get_bit(ptr noundef readonly captures(address_is_null) %0, i32 noundef %1) local_unnamed_addr #7 {
  %3 = sdiv i32 %1, 8
  %4 = and i32 %1, 7
  %5 = xor i32 %4, 7
  %6 = icmp eq ptr %0, null
  br i1 %6, label %20, label %7

7:                                                ; preds = %2
  %8 = load i32, ptr %0, align 8, !tbaa !6
  %.not = icmp sgt i32 %8, %3
  br i1 %.not, label %9, label %20

9:                                                ; preds = %7
  %10 = getelementptr inbounds nuw i8, ptr %0, i64 8
  %11 = load ptr, ptr %10, align 8, !tbaa !15
  %12 = icmp eq ptr %11, null
  br i1 %12, label %20, label %13

13:                                               ; preds = %9
  %14 = sext i32 %3 to i64
  %15 = getelementptr inbounds i8, ptr %11, i64 %14
  %16 = load i8, ptr %15, align 1, !tbaa !16
  %17 = zext i8 %16 to i32
  %18 = lshr i32 %17, %5
  %19 = and i32 %18, 1
  br label %20

20:                                               ; preds = %2, %7, %9, %13
  %.0 = phi i32 [ %19, %13 ], [ 0, %9 ], [ 0, %7 ], [ 0, %2 ]
  ret i32 %.0
}